target datalayout = "e-m:e-p270:32:32-p271:32:32-p272:64:64-i64:64-i128:128-f80:128-n8:16:32:64-S128"
target triple = "x86_64-pc-linux-gnu"

%struct.PagetableEntry = type { i32, i8, i8, i8, [5 x i64] }
%struct.TBMSharedIteratorState = type { i32, i32, i32, i32, i64, i64, i64, %struct.LWLock, i32, i32, i32 }
%struct.LWLock = type { i16, %struct.pg_atomic_uint32, %struct.proclist_head }
%struct.pg_atomic_uint32 = type { i32 }
%struct.proclist_head = type { i32, i32 }
%struct.PTEntryArray = type { %struct.pg_atomic_uint32, [0 x %struct.PagetableEntry] }
%struct.PTIterationArray = type { %struct.pg_atomic_uint32, [0 x i32] }

; Function Attrs: inlinehint nounwind uwtable
define internal i32 @pg_atomic_fetch_sub_u32_impl(ptr noundef %0, i32 noundef %1) #2 {
  %3 = alloca ptr, align 8
  %4 = alloca i32, align 4
  store ptr %0, ptr %3, align 8
  store i32 %1, ptr %4, align 4
  %5 = load ptr, ptr %3, align 8
  %6 = getelementptr inbounds nuw %struct.pg_atomic_uint32, ptr %5, i32 0, i32 0
  %7 = load i32, ptr %4, align 4
  %8 = atomicrmw sub ptr %6, i32 %7 seq_cst, align 4
  ret i32 %8
}

; Function Attrs: inlinehint nounwind uwtable
define internal i32 @pg_atomic_sub_fetch_u32_impl(ptr noundef %0, i32 noundef %1) #2 {
  %3 = alloca ptr, align 8
  %4 = alloca i32, align 4
  store ptr %0, ptr %3, align 8
  store i32 %1, ptr %4, align 4
  %5 = load ptr, ptr %3, align 8
  %6 = load i32, ptr %4, align 4
  %7 = call i32 @pg_atomic_fetch_sub_u32_impl(ptr noundef %5, i32 noundef %6)
  %8 = load i32, ptr %4, align 4
  %9 = sub i32 %7, %8
  ret i32 %9
}

; Function Attrs: inlinehint nounwind uwtable
define internal i32 @pg_atomic_sub_fetch_u32(ptr noundef %0, i32 noundef %1) #2 {
  %3 = alloca ptr, align 8
  %4 = alloca i32, align 4
  store ptr %0, ptr %3, align 8
  store i32 %1, ptr %4, align 4
  %5 = load ptr, ptr %3, align 8
  %6 = load i32, ptr %4, align 4
  %7 = call i32 @pg_atomic_sub_fetch_u32_impl(ptr noundef %5, i32 noundef %6)
  ret i32 %7
}

; Function Attrs: nounwind uwtable
define dso_local void @tbm_free_shared_area(ptr noundef %0, i64 noundef %1) #0 {
  %3 = alloca ptr, align 8
  %4 = alloca i64, align 8
  %5 = alloca ptr, align 8
  %6 = alloca ptr, align 8
  %7 = alloca ptr, align 8
  %8 = alloca ptr, align 8
  store ptr %0, ptr %3, align 8
  store i64 %1, ptr %4, align 8
  call void @llvm.lifetime.start.p0(i64 8, ptr %5) #9
  %9 = load ptr, ptr %3, align 8
  %10 = load i64, ptr %4, align 8
  %11 = call ptr @dsa_get_address(ptr noundef %9, i64 noundef %10)
  store ptr %11, ptr %5, align 8
  call void @llvm.lifetime.start.p0(i64 8, ptr %6) #9
  call void @llvm.lifetime.start.p0(i64 8, ptr %7) #9
  call void @llvm.lifetime.start.p0(i64 8, ptr %8) #9
  %12 = load ptr, ptr %5, align 8
  %13 = getelementptr inbounds nuw %struct.TBMSharedIteratorState, ptr %12, i32 0, i32 4
  %14 = load i64, ptr %13, align 8
  %15 = icmp ne i64 %14, 0
  br i1 %15, label %16, label %32

16:                                               ; preds = %2
  %17 = load ptr, ptr %3, align 8
  %18 = load ptr, ptr %5, align 8
  %19 = getelementptr inbounds nuw %struct.TBMSharedIteratorState, ptr %18, i32 0, i32 4
  %20 = load i64, ptr %19, align 8
  %21 = call ptr @dsa_get_address(ptr noundef %17, i64 noundef %20)
  store ptr %21, ptr %6, align 8
  %22 = load ptr, ptr %6, align 8
  %23 = getelementptr inbounds nuw %struct.PTEntryArray, ptr %22, i32 0, i32 0
  %24 = call i32 @pg_atomic_sub_fetch_u32(ptr noundef %23, i32 noundef 1)
  %25 = icmp eq i32 %24, 0
  br i1 %25, label %26, label %31

26:                                               ; preds = %16
  %27 = load ptr, ptr %3, align 8
  %28 = load ptr, ptr %5, align 8
  %29 = getelementptr inbounds nuw %struct.TBMSharedIteratorState, ptr %28, i32 0, i32 4
  %30 = load i64, ptr %29, align 8
  call void @dsa_free(ptr noundef %27, i64 noundef %30)
  br label %31

31:                                               ; preds = %26, %16
  br label %32

32:                                               ; preds = %31, %2
  %33 = load ptr, ptr %5, align 8
  %34 = getelementptr inbounds nuw %struct.TBMSharedIteratorState, ptr %33, i32 0, i32 5
  %35 = load i64, ptr %34, align 8
  %36 = icmp ne i64 %35, 0
  br i1 %36, label %37, label %53

37:                                               ; preds = %32
  %38 = load ptr, ptr %3, align 8
  %39 = load ptr, ptr %5, align 8
  %40 = getelementptr inbounds nuw %struct.TBMSharedIteratorState, ptr %39, i32 0, i32 5
  %41 = load i64, ptr %40, align 8
  %42 = call ptr @dsa_get_address(ptr noundef %38, i64 noundef %41)
  store ptr %42, ptr %7, align 8
  %43 = load ptr, ptr %7, align 8
  %44 = getelementptr inbounds nuw %struct.PTIterationArray, ptr %43, i32 0, i32 0
  %45 = call i32 @pg_atomic_sub_fetch_u32(ptr noundef %44, i32 noundef 1)
  %46 = icmp eq i32 %45, 0
  br i1 %46, label %47, label %52

47:                                               ; preds = %37
  %48 = load ptr, ptr %3, align 8
  %49 = load ptr, ptr %5, align 8
  %50 = getelementptr inbounds nuw %struct.TBMSharedIteratorState, ptr %49, i32 0, i32 5
  %51 = load i64, ptr %50, align 8
  call void @dsa_free(ptr noundef %48, i64 noundef %51)
  br label %52

52:                                               ; preds = %47, %37
  br label %53

53:                                               ; preds = %52, %32
  %54 = load ptr, ptr %5, align 8
  %55 = getelementptr inbounds nuw %struct.TBMSharedIteratorState, ptr %54, i32 0, i32 6
  %56 = load i64, ptr %55, align 8
  %57 = icmp ne i64 %56, 0
  br i1 %57, label %58, label %74

58:                                               ; preds = %53
  %59 = load ptr, ptr %3, align 8
  %60 = load ptr, ptr %5, align 8
  %61 = getelementptr inbounds nuw %struct.TBMSharedIteratorState, ptr %60, i32 0, i32 6
  %62 = load i64, ptr %61, align 8
  %63 = call ptr @dsa_get_address(ptr noundef %59, i64 noundef %62)
  store ptr %63, ptr %8, align 8
  %64 = load ptr, ptr %8, align 8
  %65 = getelementptr inbounds nuw %struct.PTIterationArray, ptr %64, i32 0, i32 0
  %66 = call i32 @pg_atomic_sub_fetch_u32(ptr noundef %65, i32 noundef 1)
  %67 = icmp eq i32 %66, 0
  br i1 %67, label %68, label %73

68:                                               ; preds = %58
  %69 = load ptr, ptr %3, align 8
  %70 = load ptr, ptr %5, align 8
  %71 = getelementptr inbounds nuw %struct.TBMSharedIteratorState, ptr %70, i32 0, i32 6
  %72 = load i64, ptr %71, align 8
  call void @dsa_free(ptr noundef %69, i64 noundef %72)
  br label %73

73:                                               ; preds = %68, %58
  br label %74

74:                                               ; preds = %73, %53
  %75 = load ptr, ptr %3, align 8
  %76 = load i64, ptr %4, align 8
  call void @dsa_free(ptr noundef %75, i64 noundef %76)
  call void @llvm.lifetime.end.p0(i64 8, ptr %8) #9
  call void @llvm.lifetime.end.p0(i64 8, ptr %7) #9
  call void @llvm.lifetime.end.p0(i64 8, ptr %6) #9
  call void @llvm.lifetime.end.p0(i64 8, ptr %5) #9
  ret void
}