; Function Attrs: nounwind uwtable
define dso_local void @tbm_free_shared_area(ptr noundef %0, i64 noundef %1) local_unnamed_addr #0 {
  %3 = tail call ptr @dsa_get_address(ptr noundef %0, i64 noundef %1) #14
  %4 = getelementptr inbounds nuw i8, ptr %3, i64 16
  %5 = load i64, ptr %4, align 8
  %.not = icmp eq i64 %5, 0
  br i1 %.not, label %12, label %6

6:                                                ; preds = %2
  %7 = tail call ptr @dsa_get_address(ptr noundef %0, i64 noundef %5) #14
  %8 = atomicrmw sub ptr %7, i32 1 seq_cst, align 4
  %9 = icmp eq i32 %8, 1
  br i1 %9, label %10, label %12

10:                                               ; preds = %6
  %11 = load i64, ptr %4, align 8
  tail call void @dsa_free(ptr noundef %0, i64 noundef %11) #14
  br label %12

12:                                               ; preds = %6, %10, %2
  %13 = getelementptr inbounds nuw i8, ptr %3, i64 24
  %14 = load i64, ptr %13, align 8
  %.not23 = icmp eq i64 %14, 0
  br i1 %.not23, label %21, label %15

15:                                               ; preds = %12
  %16 = tail call ptr @dsa_get_address(ptr noundef %0, i64 noundef %14) #14
  %17 = atomicrmw sub ptr %16, i32 1 seq_cst, align 4
  %18 = icmp eq i32 %17, 1
  br i1 %18, label %19, label %21

19:                                               ; preds = %15
  %20 = load i64, ptr %13, align 8
  tail call void @dsa_free(ptr noundef %0, i64 noundef %20) #14
  br label %21

21:                                               ; preds = %15, %19, %12
  %22 = getelementptr inbounds nuw i8, ptr %3, i64 32
  %23 = load i64, ptr %22, align 8
  %.not24 = icmp eq i64 %23, 0
  br i1 %.not24, label %30, label %24

24:                                               ; preds = %21
  %25 = tail call ptr @dsa_get_address(ptr noundef %0, i64 noundef %23) #14
  %26 = atomicrmw sub ptr %25, i32 1 seq_cst, align 4
  %27 = icmp eq i32 %26, 1
  br i1 %27, label %28, label %30

28:                                               ; preds = %24
  %29 = load i64, ptr %22, align 8
  tail call void @dsa_free(ptr noundef %0, i64 noundef %29) #14
  br label %30

30:                                               ; preds = %24, %28, %21
  tail call void @dsa_free(ptr noundef %0, i64 noundef %1) #14
  ret void
}